target datalayout = "e-m:e-p270:32:32-p271:32:32-p272:64:64-i64:64-i128:128-f80:128-n8:16:32:64-S128"
target triple = "x86_64-pc-linux-gnu"

%struct.xl_xact_origin = type { i64, i64 }
%struct.xl_xact_xinfo = type { i32 }
%struct.xl_xact_dbinfo = type { i32, i32 }
%struct.xl_xact_subxacts = type { i32, [0 x i32] }
%struct.xl_xact_relfilelocators = type { i32, [0 x %struct.RelFileLocator] }
%struct.RelFileLocator = type { i32, i32, i32 }
%struct.xl_xact_stats_items = type { i32, [0 x %struct.xl_xact_stats_item] }
%struct.xl_xact_stats_item = type { i32, i32, i32, i32 }
%struct.xl_xact_twophase = type { i32 }
%struct.xl_xact_parsed_abort = type { i64, i32, i32, i32, i32, ptr, i32, ptr, i32, ptr, i32, [200 x i8], i64, i64 }
%struct.xl_xact_abort = type { i64 }

; Function Attrs: nounwind uwtable
define dso_local void @ParseAbortRecord(i8 noundef zeroext %0, ptr noundef %1, ptr noundef %2) #0 {
  %4 = alloca i8, align 1
  %5 = alloca ptr, align 8
  %6 = alloca ptr, align 8
  %7 = alloca ptr, align 8
  %8 = alloca ptr, align 8
  %9 = alloca ptr, align 8
  %10 = alloca ptr, align 8
  %11 = alloca ptr, align 8
  %12 = alloca ptr, align 8
  %13 = alloca ptr, align 8
  %14 = alloca %struct.xl_xact_origin, align 8
  store i8 %0, ptr %4, align 1
  store ptr %1, ptr %5, align 8
  store ptr %2, ptr %6, align 8
  call void @llvm.lifetime.start.p0(i64 8, ptr %7) #7
  %15 = load ptr, ptr %5, align 8
  %16 = getelementptr inbounds nuw i8, ptr %15, i64 8
  store ptr %16, ptr %7, align 8
  %17 = load ptr, ptr %6, align 8
  call void @llvm.memset.p0.i64(ptr align 8 %17, i8 0, i64 288, i1 false)
  %18 = load ptr, ptr %6, align 8
  %19 = getelementptr inbounds nuw %struct.xl_xact_parsed_abort, ptr %18, i32 0, i32 1
  store i32 0, ptr %19, align 8
  %20 = load ptr, ptr %5, align 8
  %21 = getelementptr inbounds nuw %struct.xl_xact_abort, ptr %20, i32 0, i32 0
  %22 = load i64, ptr %21, align 8
  %23 = load ptr, ptr %6, align 8
  %24 = getelementptr inbounds nuw %struct.xl_xact_parsed_abort, ptr %23, i32 0, i32 0
  store i64 %22, ptr %24, align 8
  %25 = load i8, ptr %4, align 1
  %26 = zext i8 %25 to i32
  %27 = and i32 %26, 128
  %28 = icmp ne i32 %27, 0
  br i1 %28, label %29, label %38

29:                                               ; preds = %3
  call void @llvm.lifetime.start.p0(i64 8, ptr %8) #7
  %30 = load ptr, ptr %7, align 8
  store ptr %30, ptr %8, align 8
  %31 = load ptr, ptr %8, align 8
  %32 = getelementptr inbounds nuw %struct.xl_xact_xinfo, ptr %31, i32 0, i32 0
  %33 = load i32, ptr %32, align 4
  %34 = load ptr, ptr %6, align 8
  %35 = getelementptr inbounds nuw %struct.xl_xact_parsed_abort, ptr %34, i32 0, i32 1
  store i32 %33, ptr %35, align 8
  %36 = load ptr, ptr %7, align 8
  %37 = getelementptr inbounds nuw i8, ptr %36, i64 4
  store ptr %37, ptr %7, align 8
  call void @llvm.lifetime.end.p0(i64 8, ptr %8) #7
  br label %38

38:                                               ; preds = %29, %3
  %39 = load ptr, ptr %6, align 8
  %40 = getelementptr inbounds nuw %struct.xl_xact_parsed_abort, ptr %39, i32 0, i32 1
  %41 = load i32, ptr %40, align 8
  %42 = and i32 %41, 1
  %43 = icmp ne i32 %42, 0
  br i1 %43, label %44, label %58

44:                                               ; preds = %38
  call void @llvm.lifetime.start.p0(i64 8, ptr %9) #7
  %45 = load ptr, ptr %7, align 8
  store ptr %45, ptr %9, align 8
  %46 = load ptr, ptr %9, align 8
  %47 = getelementptr inbounds nuw %struct.xl_xact_dbinfo, ptr %46, i32 0, i32 0
  %48 = load i32, ptr %47, align 4
  %49 = load ptr, ptr %6, align 8
  %50 = getelementptr inbounds nuw %struct.xl_xact_parsed_abort, ptr %49, i32 0, i32 2
  store i32 %48, ptr %50, align 4
  %51 = load ptr, ptr %9, align 8
  %52 = getelementptr inbounds nuw %struct.xl_xact_dbinfo, ptr %51, i32 0, i32 1
  %53 = load i32, ptr %52, align 4
  %54 = load ptr, ptr %6, align 8
  %55 = getelementptr inbounds nuw %struct.xl_xact_parsed_abort, ptr %54, i32 0, i32 3
  store i32 %53, ptr %55, align 8
  %56 = load ptr, ptr %7, align 8
  %57 = getelementptr inbounds nuw i8, ptr %56, i64 8
  store ptr %57, ptr %7, align 8
  call void @llvm.lifetime.end.p0(i64 8, ptr %9) #7
  br label %58

58:                                               ; preds = %44, %38
  %59 = load ptr, ptr %6, align 8
  %60 = getelementptr inbounds nuw %struct.xl_xact_parsed_abort, ptr %59, i32 0, i32 1
  %61 = load i32, ptr %60, align 8
  %62 = and i32 %61, 2
  %63 = icmp ne i32 %62, 0
  br i1 %63, label %64, label %85

64:                                               ; preds = %58
  call void @llvm.lifetime.start.p0(i64 8, ptr %10) #7
  %65 = load ptr, ptr %7, align 8
  store ptr %65, ptr %10, align 8
  %66 = load ptr, ptr %10, align 8
  %67 = getelementptr inbounds nuw %struct.xl_xact_subxacts, ptr %66, i32 0, i32 0
  %68 = load i32, ptr %67, align 4
  %69 = load ptr, ptr %6, align 8
  %70 = getelementptr inbounds nuw %struct.xl_xact_parsed_abort, ptr %69, i32 0, i32 4
  store i32 %68, ptr %70, align 4
  %71 = load ptr, ptr %10, align 8
  %72 = getelementptr inbounds nuw %struct.xl_xact_subxacts, ptr %71, i32 0, i32 1
  %73 = getelementptr inbounds [0 x i32], ptr %72, i64 0, i64 0
  %74 = load ptr, ptr %6, align 8
  %75 = getelementptr inbounds nuw %struct.xl_xact_parsed_abort, ptr %74, i32 0, i32 5
  store ptr %73, ptr %75, align 8
  %76 = load ptr, ptr %7, align 8
  %77 = getelementptr inbounds nuw i8, ptr %76, i64 4
  store ptr %77, ptr %7, align 8
  %78 = load ptr, ptr %6, align 8
  %79 = getelementptr inbounds nuw %struct.xl_xact_parsed_abort, ptr %78, i32 0, i32 4
  %80 = load i32, ptr %79, align 4
  %81 = sext i32 %80 to i64
  %82 = mul i64 %81, 4
  %83 = load ptr, ptr %7, align 8
  %84 = getelementptr inbounds nuw i8, ptr %83, i64 %82
  store ptr %84, ptr %7, align 8
  call void @llvm.lifetime.end.p0(i64 8, ptr %10) #7
  br label %85

85:                                               ; preds = %64, %58
  %86 = load ptr, ptr %6, align 8
  %87 = getelementptr inbounds nuw %struct.xl_xact_parsed_abort, ptr %86, i32 0, i32 1
  %88 = load i32, ptr %87, align 8
  %89 = and i32 %88, 4
  %90 = icmp ne i32 %89, 0
  br i1 %90, label %91, label %112

91:                                               ; preds = %85
  call void @llvm.lifetime.start.p0(i64 8, ptr %11) #7
  %92 = load ptr, ptr %7, align 8
  store ptr %92, ptr %11, align 8
  %93 = load ptr, ptr %11, align 8
  %94 = getelementptr inbounds nuw %struct.xl_xact_relfilelocators, ptr %93, i32 0, i32 0
  %95 = load i32, ptr %94, align 4
  %96 = load ptr, ptr %6, align 8
  %97 = getelementptr inbounds nuw %struct.xl_xact_parsed_abort, ptr %96, i32 0, i32 6
  store i32 %95, ptr %97, align 8
  %98 = load ptr, ptr %11, align 8
  %99 = getelementptr inbounds nuw %struct.xl_xact_relfilelocators, ptr %98, i32 0, i32 1
  %100 = getelementptr inbounds [0 x %struct.RelFileLocator], ptr %99, i64 0, i64 0
  %101 = load ptr, ptr %6, align 8
  %102 = getelementptr inbounds nuw %struct.xl_xact_parsed_abort, ptr %101, i32 0, i32 7
  store ptr %100, ptr %102, align 8
  %103 = load ptr, ptr %7, align 8
  %104 = getelementptr inbounds nuw i8, ptr %103, i64 4
  store ptr %104, ptr %7, align 8
  %105 = load ptr, ptr %11, align 8
  %106 = getelementptr inbounds nuw %struct.xl_xact_relfilelocators, ptr %105, i32 0, i32 0
  %107 = load i32, ptr %106, align 4
  %108 = sext i32 %107 to i64
  %109 = mul i64 %108, 12
  %110 = load ptr, ptr %7, align 8
  %111 = getelementptr inbounds nuw i8, ptr %110, i64 %109
  store ptr %111, ptr %7, align 8
  call void @llvm.lifetime.end.p0(i64 8, ptr %11) #7
  br label %112

112:                                              ; preds = %91, %85
  %113 = load ptr, ptr %6, align 8
  %114 = getelementptr inbounds nuw %struct.xl_xact_parsed_abort, ptr %113, i32 0, i32 1
  %115 = load i32, ptr %114, align 8
  %116 = and i32 %115, 256
  %117 = icmp ne i32 %116, 0
  br i1 %117, label %118, label %139

118:                                              ; preds = %112
  call void @llvm.lifetime.start.p0(i64 8, ptr %12) #7
  %119 = load ptr, ptr %7, align 8
  store ptr %119, ptr %12, align 8
  %120 = load ptr, ptr %12, align 8
  %121 = getelementptr inbounds nuw %struct.xl_xact_stats_items, ptr %120, i32 0, i32 0
  %122 = load i32, ptr %121, align 4
  %123 = load ptr, ptr %6, align 8
  %124 = getelementptr inbounds nuw %struct.xl_xact_parsed_abort, ptr %123, i32 0, i32 8
  store i32 %122, ptr %124, align 8
  %125 = load ptr, ptr %12, align 8
  %126 = getelementptr inbounds nuw %struct.xl_xact_stats_items, ptr %125, i32 0, i32 1
  %127 = getelementptr inbounds [0 x %struct.xl_xact_stats_item], ptr %126, i64 0, i64 0
  %128 = load ptr, ptr %6, align 8
  %129 = getelementptr inbounds nuw %struct.xl_xact_parsed_abort, ptr %128, i32 0, i32 9
  store ptr %127, ptr %129, align 8
  %130 = load ptr, ptr %7, align 8
  %131 = getelementptr inbounds nuw i8, ptr %130, i64 4
  store ptr %131, ptr %7, align 8
  %132 = load ptr, ptr %12, align 8
  %133 = getelementptr inbounds nuw %struct.xl_xact_stats_items, ptr %132, i32 0, i32 0
  %134 = load i32, ptr %133, align 4
  %135 = sext i32 %134 to i64
  %136 = mul i64 %135, 16
  %137 = load ptr, ptr %7, align 8
  %138 = getelementptr inbounds nuw i8, ptr %137, i64 %136
  store ptr %138, ptr %7, align 8
  call void @llvm.lifetime.end.p0(i64 8, ptr %12) #7
  br label %139

139:                                              ; preds = %118, %112
  %140 = load ptr, ptr %6, align 8
  %141 = getelementptr inbounds nuw %struct.xl_xact_parsed_abort, ptr %140, i32 0, i32 1
  %142 = load i32, ptr %141, align 8
  %143 = and i32 %142, 16
  %144 = icmp ne i32 %143, 0
  br i1 %144, label %145, label %171

145:                                              ; preds = %139
  call void @llvm.lifetime.start.p0(i64 8, ptr %13) #7
  %146 = load ptr, ptr %7, align 8
  store ptr %146, ptr %13, align 8
  %147 = load ptr, ptr %13, align 8
  %148 = getelementptr inbounds nuw %struct.xl_xact_twophase, ptr %147, i32 0, i32 0
  %149 = load i32, ptr %148, align 4
  %150 = load ptr, ptr %6, align 8
  %151 = getelementptr inbounds nuw %struct.xl_xact_parsed_abort, ptr %150, i32 0, i32 10
  store i32 %149, ptr %151, align 8
  %152 = load ptr, ptr %7, align 8
  %153 = getelementptr inbounds nuw i8, ptr %152, i64 4
  store ptr %153, ptr %7, align 8
  %154 = load ptr, ptr %6, align 8
  %155 = getelementptr inbounds nuw %struct.xl_xact_parsed_abort, ptr %154, i32 0, i32 1
  %156 = load i32, ptr %155, align 8
  %157 = and i32 %156, 128
  %158 = icmp ne i32 %157, 0
  br i1 %158, label %159, label %170

159:                                              ; preds = %145
  %160 = load ptr, ptr %6, align 8
  %161 = getelementptr inbounds nuw %struct.xl_xact_parsed_abort, ptr %160, i32 0, i32 11
  %162 = getelementptr inbounds [200 x i8], ptr %161, i64 0, i64 0
  %163 = load ptr, ptr %7, align 8
  %164 = call i64 @strlcpy(ptr noundef %162, ptr noundef %163, i64 noundef 200)
  %165 = load ptr, ptr %7, align 8
  %166 = call i64 @strlen(ptr noundef %165) #8
  %167 = add i64 %166, 1
  %168 = load ptr, ptr %7, align 8
  %169 = getelementptr inbounds nuw i8, ptr %168, i64 %167
  store ptr %169, ptr %7, align 8
  br label %170

170:                                              ; preds = %159, %145
  call void @llvm.lifetime.end.p0(i64 8, ptr %13) #7
  br label %171

171:                                              ; preds = %170, %139
  %172 = load ptr, ptr %6, align 8
  %173 = getelementptr inbounds nuw %struct.xl_xact_parsed_abort, ptr %172, i32 0, i32 1
  %174 = load i32, ptr %173, align 8
  %175 = and i32 %174, 32
  %176 = icmp ne i32 %175, 0
  br i1 %176, label %177, label %189

177:                                              ; preds = %171
  call void @llvm.lifetime.start.p0(i64 16, ptr %14) #7
  %178 = load ptr, ptr %7, align 8
  call void @llvm.memcpy.p0.p0.i64(ptr align 8 %14, ptr align 1 %178, i64 16, i1 false)
  %179 = getelementptr inbounds nuw %struct.xl_xact_origin, ptr %14, i32 0, i32 0
  %180 = load i64, ptr %179, align 8
  %181 = load ptr, ptr %6, align 8
  %182 = getelementptr inbounds nuw %struct.xl_xact_parsed_abort, ptr %181, i32 0, i32 12
  store i64 %180, ptr %182, align 8
  %183 = getelementptr inbounds nuw %struct.xl_xact_origin, ptr %14, i32 0, i32 1
  %184 = load i64, ptr %183, align 8
  %185 = load ptr, ptr %6, align 8
  %186 = getelementptr inbounds nuw %struct.xl_xact_parsed_abort, ptr %185, i32 0, i32 13
  store i64 %184, ptr %186, align 8
  %187 = load ptr, ptr %7, align 8
  %188 = getelementptr inbounds nuw i8, ptr %187, i64 16
  store ptr %188, ptr %7, align 8
  call void @llvm.lifetime.end.p0(i64 16, ptr %14) #7
  br label %189

189:                                              ; preds = %177, %171
  call void @llvm.lifetime.end.p0(i64 8, ptr %7) #7
  ret void
}