; Function Attrs: nofree nounwind uwtable
define dso_local void @ParseAbortRecord(i8 noundef zeroext %0, ptr noundef %1, ptr noundef initializes((0, 288)) %2) local_unnamed_addr #0 {
  %4 = getelementptr inbounds nuw i8, ptr %2, i64 8
  tail call void @llvm.memset.p0.i64(ptr noundef nonnull align 8 dereferenceable(288) %2, i8 0, i64 288, i1 false)
  %5 = load i64, ptr %1, align 8
  store i64 %5, ptr %2, align 8
  %.not = icmp sgt i8 %0, -1
  br i1 %.not, label %.thread79, label %6

6:                                                ; preds = %3
  %7 = getelementptr inbounds nuw i8, ptr %1, i64 8
  %8 = load i32, ptr %7, align 4
  store i32 %8, ptr %4, align 8
  %9 = getelementptr inbounds nuw i8, ptr %1, i64 12
  %10 = and i32 %8, 1
  %.not58 = icmp eq i32 %10, 0
  br i1 %.not58, label %18, label %11

11:                                               ; preds = %6
  %12 = load i32, ptr %9, align 4
  %13 = getelementptr inbounds nuw i8, ptr %2, i64 12
  store i32 %12, ptr %13, align 4
  %14 = getelementptr inbounds nuw i8, ptr %1, i64 16
  %15 = load i32, ptr %14, align 4
  %16 = getelementptr inbounds nuw i8, ptr %2, i64 16
  store i32 %15, ptr %16, align 8
  %17 = getelementptr inbounds nuw i8, ptr %1, i64 20
  br label %18

18:                                               ; preds = %11, %6
  %.1 = phi ptr [ %17, %11 ], [ %9, %6 ]
  %19 = and i32 %8, 2
  %.not59 = icmp eq i32 %19, 0
  br i1 %.not59, label %28, label %20

20:                                               ; preds = %18
  %21 = load i32, ptr %.1, align 4
  %22 = getelementptr inbounds nuw i8, ptr %2, i64 20
  store i32 %21, ptr %22, align 4
  %23 = getelementptr inbounds nuw i8, ptr %.1, i64 4
  %24 = getelementptr inbounds nuw i8, ptr %2, i64 24
  store ptr %23, ptr %24, align 8
  %25 = sext i32 %21 to i64
  %26 = shl nsw i64 %25, 2
  %27 = getelementptr inbounds nuw i8, ptr %23, i64 %26
  br label %28

28:                                               ; preds = %20, %18
  %.2 = phi ptr [ %27, %20 ], [ %.1, %18 ]
  %29 = and i32 %8, 4
  %.not60 = icmp eq i32 %29, 0
  br i1 %.not60, label %39, label %30

30:                                               ; preds = %28
  %31 = load i32, ptr %.2, align 4
  %32 = getelementptr inbounds nuw i8, ptr %2, i64 32
  store i32 %31, ptr %32, align 8
  %33 = getelementptr inbounds nuw i8, ptr %.2, i64 4
  %34 = getelementptr inbounds nuw i8, ptr %2, i64 40
  store ptr %33, ptr %34, align 8
  %35 = load i32, ptr %.2, align 4
  %36 = sext i32 %35 to i64
  %37 = mul nsw i64 %36, 12
  %38 = getelementptr inbounds nuw i8, ptr %33, i64 %37
  br label %39

39:                                               ; preds = %30, %28
  %.3 = phi ptr [ %38, %30 ], [ %.2, %28 ]
  %40 = and i32 %8, 256
  %.not61 = icmp eq i32 %40, 0
  br i1 %.not61, label %50, label %41

41:                                               ; preds = %39
  %42 = load i32, ptr %.3, align 4
  %43 = getelementptr inbounds nuw i8, ptr %2, i64 48
  store i32 %42, ptr %43, align 8
  %44 = getelementptr inbounds nuw i8, ptr %.3, i64 4
  %45 = getelementptr inbounds nuw i8, ptr %2, i64 56
  store ptr %44, ptr %45, align 8
  %46 = load i32, ptr %.3, align 4
  %47 = sext i32 %46 to i64
  %48 = shl nsw i64 %47, 4
  %49 = getelementptr inbounds nuw i8, ptr %44, i64 %48
  br label %50

50:                                               ; preds = %41, %39
  %.4 = phi ptr [ %49, %41 ], [ %.3, %39 ]
  %51 = and i32 %8, 16
  %.not62 = icmp eq i32 %51, 0
  br i1 %.not62, label %63, label %52

52:                                               ; preds = %50
  %53 = load i32, ptr %.4, align 4
  %54 = getelementptr inbounds nuw i8, ptr %2, i64 64
  store i32 %53, ptr %54, align 8
  %55 = getelementptr inbounds nuw i8, ptr %.4, i64 4
  %56 = and i32 %8, 128
  %.not63 = icmp eq i32 %56, 0
  br i1 %.not63, label %63, label %57

57:                                               ; preds = %52
  %58 = getelementptr inbounds nuw i8, ptr %2, i64 68
  %59 = tail call i64 @strlcpy(ptr noundef nonnull dereferenceable(1) %58, ptr noundef nonnull dereferenceable(1) %55, i64 noundef 200) #10
  %60 = tail call i64 @strlen(ptr noundef nonnull dereferenceable(1) %55) #11
  %61 = getelementptr i8, ptr %55, i64 %60
  %62 = getelementptr i8, ptr %61, i64 1
  %.pre = load i32, ptr %4, align 8
  br label %63

63:                                               ; preds = %52, %57, %50
  %64 = phi i32 [ %8, %50 ], [ %.pre, %57 ], [ %8, %52 ]
  %.5 = phi ptr [ %.4, %50 ], [ %62, %57 ], [ %55, %52 ]
  %65 = and i32 %64, 32
  %.not64 = icmp eq i32 %65, 0
  br i1 %.not64, label %.thread79, label %66

66:                                               ; preds = %63
  %.sroa.0.0.copyload = load i64, ptr %.5, align 1
  %.sroa.4.0..sroa_idx = getelementptr inbounds nuw i8, ptr %.5, i64 8
  %.sroa.4.0.copyload = load i64, ptr %.sroa.4.0..sroa_idx, align 1
  %67 = getelementptr inbounds nuw i8, ptr %2, i64 272
  store i64 %.sroa.0.0.copyload, ptr %67, align 8
  %68 = getelementptr inbounds nuw i8, ptr %2, i64 280
  store i64 %.sroa.4.0.copyload, ptr %68, align 8
  br label %.thread79

.thread79:                                        ; preds = %3, %66, %63
  ret void
}